target datalayout = "e-m:e-p270:32:32-p271:32:32-p272:64:64-i64:64-i128:128-f80:128-n8:16:32:64-S128"
target triple = "x86_64-pc-linux-gnu"

%"struct.Luau::CodeGen::BuiltinImplResult" = type { i32, i32 }
%"struct.Luau::CodeGen::IrOp" = type { i32 }

; Function Attrs: mustprogress uwtable
define internal i32 @_ZN4Luau7CodeGenL17builtinLoadDoubleERNS0_9IrBuilderENS0_4IrOpE(ptr noundef nonnull align 8 dereferenceable(752) %0, i32 %1) #2 {
  %3 = alloca %"struct.Luau::CodeGen::IrOp", align 4
  %4 = alloca %"struct.Luau::CodeGen::IrOp", align 4
  %5 = alloca ptr, align 8
  %6 = alloca %"struct.Luau::CodeGen::IrOp", align 4
  %7 = getelementptr inbounds nuw %"struct.Luau::CodeGen::IrOp", ptr %4, i32 0, i32 0
  store i32 %1, ptr %7, align 4
  store ptr %0, ptr %5, align 8, !tbaa !20
  %8 = load i32, ptr %4, align 4
  %9 = and i32 %8, 15
  %10 = icmp eq i32 %9, 2
  br i1 %10, label %11, label %12

11:                                               ; preds = %2
  call void @llvm.memcpy.p0.p0.i64(ptr align 4 %3, ptr align 4 %4, i64 4, i1 false), !tbaa.struct !28
  br label %18

12:                                               ; preds = %2
  %13 = load ptr, ptr %5, align 8, !tbaa !20
  call void @llvm.memcpy.p0.p0.i64(ptr align 4 %6, ptr align 4 %4, i64 4, i1 false), !tbaa.struct !28
  %14 = getelementptr inbounds nuw %"struct.Luau::CodeGen::IrOp", ptr %6, i32 0, i32 0
  %15 = load i32, ptr %14, align 4
  %16 = call i32 @_ZN4Luau7CodeGen9IrBuilder4instENS0_5IrCmdENS0_4IrOpE(ptr noundef nonnull align 8 dereferenceable(752) %13, i8 noundef zeroext 3, i32 %15)
  %17 = getelementptr inbounds nuw %"struct.Luau::CodeGen::IrOp", ptr %3, i32 0, i32 0
  store i32 %16, ptr %17, align 4
  br label %18

18:                                               ; preds = %12, %11
  %19 = getelementptr inbounds nuw %"struct.Luau::CodeGen::IrOp", ptr %3, i32 0, i32 0
  %20 = load i32, ptr %19, align 4
  ret i32 %20
}

; Function Attrs: mustprogress uwtable
define internal void @_ZN4Luau7CodeGenL18builtinCheckDoubleERNS0_9IrBuilderENS0_4IrOpEi(ptr noundef nonnull align 8 dereferenceable(752) %0, i32 %1, i32 noundef %2) #2 {
  %4 = alloca %"struct.Luau::CodeGen::IrOp", align 4
  %5 = alloca ptr, align 8
  %6 = alloca i32, align 4
  %7 = alloca %"struct.Luau::CodeGen::IrOp", align 4
  %8 = alloca %"struct.Luau::CodeGen::IrOp", align 4
  %9 = getelementptr inbounds nuw %"struct.Luau::CodeGen::IrOp", ptr %4, i32 0, i32 0
  store i32 %1, ptr %9, align 4
  store ptr %0, ptr %5, align 8, !tbaa !20
  store i32 %2, ptr %6, align 4, !tbaa !22
  %10 = load i32, ptr %4, align 4
  %11 = and i32 %10, 15
  %12 = icmp eq i32 %11, 2
  br i1 %12, label %13, label %14

13:                                               ; preds = %3
  br label %24

14:                                               ; preds = %3
  %15 = load ptr, ptr %5, align 8, !tbaa !20
  call void @llvm.memcpy.p0.p0.i64(ptr align 4 %7, ptr align 4 %4, i64 4, i1 false), !tbaa.struct !28
  %16 = load ptr, ptr %5, align 8, !tbaa !20
  %17 = load i32, ptr %6, align 4, !tbaa !22
  %18 = call i32 @_ZN4Luau7CodeGen9IrBuilder6vmExitEj(ptr noundef nonnull align 8 dereferenceable(752) %16, i32 noundef %17)
  %19 = getelementptr inbounds nuw %"struct.Luau::CodeGen::IrOp", ptr %8, i32 0, i32 0
  store i32 %18, ptr %19, align 4
  %20 = getelementptr inbounds nuw %"struct.Luau::CodeGen::IrOp", ptr %7, i32 0, i32 0
  %21 = load i32, ptr %20, align 4
  %22 = getelementptr inbounds nuw %"struct.Luau::CodeGen::IrOp", ptr %8, i32 0, i32 0
  %23 = load i32, ptr %22, align 4
  call void @_ZN4Luau7CodeGen9IrBuilder15loadAndCheckTagENS0_4IrOpEhS2_(ptr noundef nonnull align 8 dereferenceable(752) %15, i32 %21, i8 noundef zeroext 3, i32 %23)
  br label %24

24:                                               ; preds = %14, %13
  ret void
}

; Function Attrs: mustprogress uwtable
define internal i64 @_ZN4Luau7CodeGenL25translateBuiltinMathClampERNS0_9IrBuilderEiiiNS0_4IrOpES3_iS3_i(ptr noundef nonnull align 8 dereferenceable(752) %0, i32 noundef %1, i32 noundef %2, i32 noundef %3, i32 %4, i32 %5, i32 noundef %6, i32 %7, i32 noundef %8) #2 {
  %10 = alloca %"struct.Luau::CodeGen::BuiltinImplResult", align 4
  %11 = alloca %"struct.Luau::CodeGen::IrOp", align 4
  %12 = alloca %"struct.Luau::CodeGen::IrOp", align 4
  %13 = alloca %"struct.Luau::CodeGen::IrOp", align 4
  %14 = alloca ptr, align 8
  %15 = alloca i32, align 4
  %16 = alloca i32, align 4
  %17 = alloca i32, align 4
  %18 = alloca i32, align 4
  %19 = alloca i32, align 4
  %20 = alloca %"struct.Luau::CodeGen::IrOp", align 4
  %21 = alloca %"struct.Luau::CodeGen::IrOp", align 4
  %22 = alloca %"struct.Luau::CodeGen::IrOp", align 4
  %23 = alloca %"struct.Luau::CodeGen::IrOp", align 4
  %24 = alloca %"struct.Luau::CodeGen::IrOp", align 4
  %25 = alloca %"struct.Luau::CodeGen::IrOp", align 4
  %26 = alloca %"struct.Luau::CodeGen::IrOp", align 4
  %27 = alloca %"struct.Luau::CodeGen::IrOp", align 4
  %28 = alloca %"struct.Luau::CodeGen::IrOp", align 4
  %29 = alloca %"struct.Luau::CodeGen::IrOp", align 4
  %30 = alloca %"struct.Luau::CodeGen::IrOp", align 4
  %31 = alloca %"struct.Luau::CodeGen::IrOp", align 4
  %32 = alloca %"struct.Luau::CodeGen::IrOp", align 4
  %33 = alloca %"struct.Luau::CodeGen::IrOp", align 4
  %34 = alloca %"struct.Luau::CodeGen::IrOp", align 4
  %35 = alloca %"struct.Luau::CodeGen::IrOp", align 4
  %36 = alloca %"struct.Luau::CodeGen::IrOp", align 4
  %37 = alloca %"struct.Luau::CodeGen::IrOp", align 4
  %38 = alloca %"struct.Luau::CodeGen::IrOp", align 4
  %39 = alloca %"struct.Luau::CodeGen::IrOp", align 4
  %40 = alloca %"struct.Luau::CodeGen::IrOp", align 4
  %41 = alloca %"struct.Luau::CodeGen::IrOp", align 4
  %42 = alloca %"struct.Luau::CodeGen::IrOp", align 4
  %43 = alloca %"struct.Luau::CodeGen::IrOp", align 4
  %44 = alloca %"struct.Luau::CodeGen::IrOp", align 4
  %45 = alloca %"struct.Luau::CodeGen::IrOp", align 4
  %46 = alloca %"struct.Luau::CodeGen::IrOp", align 4
  %47 = alloca %"struct.Luau::CodeGen::IrOp", align 4
  %48 = alloca %"struct.Luau::CodeGen::IrOp", align 4
  %49 = getelementptr inbounds nuw %"struct.Luau::CodeGen::IrOp", ptr %11, i32 0, i32 0
  store i32 %4, ptr %49, align 4
  %50 = getelementptr inbounds nuw %"struct.Luau::CodeGen::IrOp", ptr %12, i32 0, i32 0
  store i32 %5, ptr %50, align 4
  %51 = getelementptr inbounds nuw %"struct.Luau::CodeGen::IrOp", ptr %13, i32 0, i32 0
  store i32 %7, ptr %51, align 4
  store ptr %0, ptr %14, align 8, !tbaa !20
  store i32 %1, ptr %15, align 4, !tbaa !22
  store i32 %2, ptr %16, align 4, !tbaa !22
  store i32 %3, ptr %17, align 4, !tbaa !22
  store i32 %6, ptr %18, align 4, !tbaa !22
  store i32 %8, ptr %19, align 4, !tbaa !22
  %52 = load i32, ptr %15, align 4, !tbaa !22
  %53 = icmp slt i32 %52, 3
  br i1 %53, label %57, label %54

54:                                               ; preds = %9
  %55 = load i32, ptr %18, align 4, !tbaa !22
  %56 = icmp sgt i32 %55, 1
  br i1 %56, label %57, label %60

57:                                               ; preds = %54, %9
  %58 = getelementptr inbounds nuw %"struct.Luau::CodeGen::BuiltinImplResult", ptr %10, i32 0, i32 0
  store i32 0, ptr %58, align 4, !tbaa !24
  %59 = getelementptr inbounds nuw %"struct.Luau::CodeGen::BuiltinImplResult", ptr %10, i32 0, i32 1
  store i32 -1, ptr %59, align 4, !tbaa !27
  br label %168

60:                                               ; preds = %54
  call void @llvm.lifetime.start.p0(i64 4, ptr %20) #11
  %61 = load ptr, ptr %14, align 8, !tbaa !20
  %62 = call i32 @_ZN4Luau7CodeGen9IrBuilder5blockENS0_11IrBlockKindE(ptr noundef nonnull align 8 dereferenceable(752) %61, i8 noundef zeroext 2)
  %63 = getelementptr inbounds nuw %"struct.Luau::CodeGen::IrOp", ptr %20, i32 0, i32 0
  store i32 %62, ptr %63, align 4
  %64 = load ptr, ptr %14, align 8, !tbaa !20
  %65 = load ptr, ptr %14, align 8, !tbaa !20
  %66 = load i32, ptr %17, align 4, !tbaa !22
  %67 = trunc i32 %66 to i8
  %68 = call i32 @_ZN4Luau7CodeGen9IrBuilder5vmRegEh(ptr noundef nonnull align 8 dereferenceable(752) %65, i8 noundef zeroext %67)
  %69 = getelementptr inbounds nuw %"struct.Luau::CodeGen::IrOp", ptr %21, i32 0, i32 0
  store i32 %68, ptr %69, align 4
  %70 = load i32, ptr %19, align 4, !tbaa !22
  %71 = getelementptr inbounds nuw %"struct.Luau::CodeGen::IrOp", ptr %21, i32 0, i32 0
  %72 = load i32, ptr %71, align 4
  call void @_ZN4Luau7CodeGenL18builtinCheckDoubleERNS0_9IrBuilderENS0_4IrOpEi(ptr noundef nonnull align 8 dereferenceable(752) %64, i32 %72, i32 noundef %70)
  %73 = load ptr, ptr %14, align 8, !tbaa !20
  call void @llvm.memcpy.p0.p0.i64(ptr align 4 %22, ptr align 4 %11, i64 4, i1 false), !tbaa.struct !28
  %74 = load i32, ptr %19, align 4, !tbaa !22
  %75 = getelementptr inbounds nuw %"struct.Luau::CodeGen::IrOp", ptr %22, i32 0, i32 0
  %76 = load i32, ptr %75, align 4
  call void @_ZN4Luau7CodeGenL18builtinCheckDoubleERNS0_9IrBuilderENS0_4IrOpEi(ptr noundef nonnull align 8 dereferenceable(752) %73, i32 %76, i32 noundef %74)
  %77 = load ptr, ptr %14, align 8, !tbaa !20
  call void @llvm.memcpy.p0.p0.i64(ptr align 4 %23, ptr align 4 %12, i64 4, i1 false), !tbaa.struct !28
  %78 = load i32, ptr %19, align 4, !tbaa !22
  %79 = getelementptr inbounds nuw %"struct.Luau::CodeGen::IrOp", ptr %23, i32 0, i32 0
  %80 = load i32, ptr %79, align 4
  call void @_ZN4Luau7CodeGenL18builtinCheckDoubleERNS0_9IrBuilderENS0_4IrOpEi(ptr noundef nonnull align 8 dereferenceable(752) %77, i32 %80, i32 noundef %78)
  call void @llvm.lifetime.start.p0(i64 4, ptr %24) #11
  %81 = load ptr, ptr %14, align 8, !tbaa !20
  call void @llvm.memcpy.p0.p0.i64(ptr align 4 %25, ptr align 4 %11, i64 4, i1 false), !tbaa.struct !28
  %82 = getelementptr inbounds nuw %"struct.Luau::CodeGen::IrOp", ptr %25, i32 0, i32 0
  %83 = load i32, ptr %82, align 4
  %84 = call i32 @_ZN4Luau7CodeGenL17builtinLoadDoubleERNS0_9IrBuilderENS0_4IrOpE(ptr noundef nonnull align 8 dereferenceable(752) %81, i32 %83)
  %85 = getelementptr inbounds nuw %"struct.Luau::CodeGen::IrOp", ptr %24, i32 0, i32 0
  store i32 %84, ptr %85, align 4
  call void @llvm.lifetime.start.p0(i64 4, ptr %26) #11
  %86 = load ptr, ptr %14, align 8, !tbaa !20
  call void @llvm.memcpy.p0.p0.i64(ptr align 4 %27, ptr align 4 %12, i64 4, i1 false), !tbaa.struct !28
  %87 = getelementptr inbounds nuw %"struct.Luau::CodeGen::IrOp", ptr %27, i32 0, i32 0
  %88 = load i32, ptr %87, align 4
  %89 = call i32 @_ZN4Luau7CodeGenL17builtinLoadDoubleERNS0_9IrBuilderENS0_4IrOpE(ptr noundef nonnull align 8 dereferenceable(752) %86, i32 %88)
  %90 = getelementptr inbounds nuw %"struct.Luau::CodeGen::IrOp", ptr %26, i32 0, i32 0
  store i32 %89, ptr %90, align 4
  %91 = load ptr, ptr %14, align 8, !tbaa !20
  call void @llvm.memcpy.p0.p0.i64(ptr align 4 %28, ptr align 4 %24, i64 4, i1 false), !tbaa.struct !28
  call void @llvm.memcpy.p0.p0.i64(ptr align 4 %29, ptr align 4 %26, i64 4, i1 false), !tbaa.struct !28
  %92 = load ptr, ptr %14, align 8, !tbaa !20
  %93 = call i32 @_ZN4Luau7CodeGen9IrBuilder4condENS0_11IrConditionE(ptr noundef nonnull align 8 dereferenceable(752) %92, i8 noundef zeroext 5)
  %94 = getelementptr inbounds nuw %"struct.Luau::CodeGen::IrOp", ptr %30, i32 0, i32 0
  store i32 %93, ptr %94, align 4
  call void @llvm.memcpy.p0.p0.i64(ptr align 4 %31, ptr align 4 %13, i64 4, i1 false), !tbaa.struct !28
  call void @llvm.memcpy.p0.p0.i64(ptr align 4 %32, ptr align 4 %20, i64 4, i1 false), !tbaa.struct !28
  %95 = getelementptr inbounds nuw %"struct.Luau::CodeGen::IrOp", ptr %28, i32 0, i32 0
  %96 = load i32, ptr %95, align 4
  %97 = getelementptr inbounds nuw %"struct.Luau::CodeGen::IrOp", ptr %29, i32 0, i32 0
  %98 = load i32, ptr %97, align 4
  %99 = getelementptr inbounds nuw %"struct.Luau::CodeGen::IrOp", ptr %30, i32 0, i32 0
  %100 = load i32, ptr %99, align 4
  %101 = getelementptr inbounds nuw %"struct.Luau::CodeGen::IrOp", ptr %31, i32 0, i32 0
  %102 = load i32, ptr %101, align 4
  %103 = getelementptr inbounds nuw %"struct.Luau::CodeGen::IrOp", ptr %32, i32 0, i32 0
  %104 = load i32, ptr %103, align 4
  %105 = call i32 @_ZN4Luau7CodeGen9IrBuilder4instENS0_5IrCmdENS0_4IrOpES3_S3_S3_S3_(ptr noundef nonnull align 8 dereferenceable(752) %91, i8 noundef zeroext 52, i32 %96, i32 %98, i32 %100, i32 %102, i32 %104)
  %106 = getelementptr inbounds nuw %"struct.Luau::CodeGen::IrOp", ptr %33, i32 0, i32 0
  store i32 %105, ptr %106, align 4
  %107 = load ptr, ptr %14, align 8, !tbaa !20
  call void @llvm.memcpy.p0.p0.i64(ptr align 4 %34, ptr align 4 %20, i64 4, i1 false), !tbaa.struct !28
  %108 = getelementptr inbounds nuw %"struct.Luau::CodeGen::IrOp", ptr %34, i32 0, i32 0
  %109 = load i32, ptr %108, align 4
  call void @_ZN4Luau7CodeGen9IrBuilder10beginBlockENS0_4IrOpE(ptr noundef nonnull align 8 dereferenceable(752) %107, i32 %109)
  call void @llvm.lifetime.start.p0(i64 4, ptr %35) #11
  %110 = load ptr, ptr %14, align 8, !tbaa !20
  %111 = load ptr, ptr %14, align 8, !tbaa !20
  %112 = load i32, ptr %17, align 4, !tbaa !22
  %113 = trunc i32 %112 to i8
  %114 = call i32 @_ZN4Luau7CodeGen9IrBuilder5vmRegEh(ptr noundef nonnull align 8 dereferenceable(752) %111, i8 noundef zeroext %113)
  %115 = getelementptr inbounds nuw %"struct.Luau::CodeGen::IrOp", ptr %36, i32 0, i32 0
  store i32 %114, ptr %115, align 4
  %116 = getelementptr inbounds nuw %"struct.Luau::CodeGen::IrOp", ptr %36, i32 0, i32 0
  %117 = load i32, ptr %116, align 4
  %118 = call i32 @_ZN4Luau7CodeGenL17builtinLoadDoubleERNS0_9IrBuilderENS0_4IrOpE(ptr noundef nonnull align 8 dereferenceable(752) %110, i32 %117)
  %119 = getelementptr inbounds nuw %"struct.Luau::CodeGen::IrOp", ptr %35, i32 0, i32 0
  store i32 %118, ptr %119, align 4
  call void @llvm.lifetime.start.p0(i64 4, ptr %37) #11
  %120 = load ptr, ptr %14, align 8, !tbaa !20
  call void @llvm.memcpy.p0.p0.i64(ptr align 4 %38, ptr align 4 %24, i64 4, i1 false), !tbaa.struct !28
  call void @llvm.memcpy.p0.p0.i64(ptr align 4 %39, ptr align 4 %35, i64 4, i1 false), !tbaa.struct !28
  %121 = getelementptr inbounds nuw %"struct.Luau::CodeGen::IrOp", ptr %38, i32 0, i32 0
  %122 = load i32, ptr %121, align 4
  %123 = getelementptr inbounds nuw %"struct.Luau::CodeGen::IrOp", ptr %39, i32 0, i32 0
  %124 = load i32, ptr %123, align 4
  %125 = call i32 @_ZN4Luau7CodeGen9IrBuilder4instENS0_5IrCmdENS0_4IrOpES3_(ptr noundef nonnull align 8 dereferenceable(752) %120, i8 noundef zeroext 29, i32 %122, i32 %124)
  %126 = getelementptr inbounds nuw %"struct.Luau::CodeGen::IrOp", ptr %37, i32 0, i32 0
  store i32 %125, ptr %126, align 4
  call void @llvm.lifetime.start.p0(i64 4, ptr %40) #11
  %127 = load ptr, ptr %14, align 8, !tbaa !20
  call void @llvm.memcpy.p0.p0.i64(ptr align 4 %41, ptr align 4 %26, i64 4, i1 false), !tbaa.struct !28
  call void @llvm.memcpy.p0.p0.i64(ptr align 4 %42, ptr align 4 %37, i64 4, i1 false), !tbaa.struct !28
  %128 = getelementptr inbounds nuw %"struct.Luau::CodeGen::IrOp", ptr %41, i32 0, i32 0
  %129 = load i32, ptr %128, align 4
  %130 = getelementptr inbounds nuw %"struct.Luau::CodeGen::IrOp", ptr %42, i32 0, i32 0
  %131 = load i32, ptr %130, align 4
  %132 = call i32 @_ZN4Luau7CodeGen9IrBuilder4instENS0_5IrCmdENS0_4IrOpES3_(ptr noundef nonnull align 8 dereferenceable(752) %127, i8 noundef zeroext 28, i32 %129, i32 %131)
  %133 = getelementptr inbounds nuw %"struct.Luau::CodeGen::IrOp", ptr %40, i32 0, i32 0
  store i32 %132, ptr %133, align 4
  %134 = load ptr, ptr %14, align 8, !tbaa !20
  %135 = load ptr, ptr %14, align 8, !tbaa !20
  %136 = load i32, ptr %16, align 4, !tbaa !22
  %137 = trunc i32 %136 to i8
  %138 = call i32 @_ZN4Luau7CodeGen9IrBuilder5vmRegEh(ptr noundef nonnull align 8 dereferenceable(752) %135, i8 noundef zeroext %137)
  %139 = getelementptr inbounds nuw %"struct.Luau::CodeGen::IrOp", ptr %43, i32 0, i32 0
  store i32 %138, ptr %139, align 4
  call void @llvm.memcpy.p0.p0.i64(ptr align 4 %44, ptr align 4 %40, i64 4, i1 false), !tbaa.struct !28
  %140 = getelementptr inbounds nuw %"struct.Luau::CodeGen::IrOp", ptr %43, i32 0, i32 0
  %141 = load i32, ptr %140, align 4
  %142 = getelementptr inbounds nuw %"struct.Luau::CodeGen::IrOp", ptr %44, i32 0, i32 0
  %143 = load i32, ptr %142, align 4
  %144 = call i32 @_ZN4Luau7CodeGen9IrBuilder4instENS0_5IrCmdENS0_4IrOpES3_(ptr noundef nonnull align 8 dereferenceable(752) %134, i8 noundef zeroext 15, i32 %141, i32 %143)
  %145 = getelementptr inbounds nuw %"struct.Luau::CodeGen::IrOp", ptr %45, i32 0, i32 0
  store i32 %144, ptr %145, align 4
  %146 = load i32, ptr %16, align 4, !tbaa !22
  %147 = load i32, ptr %17, align 4, !tbaa !22
  %148 = icmp ne i32 %146, %147
  br i1 %148, label %149, label %165

149:                                              ; preds = %60
  %150 = load ptr, ptr %14, align 8, !tbaa !20
  %151 = load ptr, ptr %14, align 8, !tbaa !20
  %152 = load i32, ptr %16, align 4, !tbaa !22
  %153 = trunc i32 %152 to i8
  %154 = call i32 @_ZN4Luau7CodeGen9IrBuilder5vmRegEh(ptr noundef nonnull align 8 dereferenceable(752) %151, i8 noundef zeroext %153)
  %155 = getelementptr inbounds nuw %"struct.Luau::CodeGen::IrOp", ptr %46, i32 0, i32 0
  store i32 %154, ptr %155, align 4
  %156 = load ptr, ptr %14, align 8, !tbaa !20
  %157 = call i32 @_ZN4Luau7CodeGen9IrBuilder8constTagEh(ptr noundef nonnull align 8 dereferenceable(752) %156, i8 noundef zeroext 3)
  %158 = getelementptr inbounds nuw %"struct.Luau::CodeGen::IrOp", ptr %47, i32 0, i32 0
  store i32 %157, ptr %158, align 4
  %159 = getelementptr inbounds nuw %"struct.Luau::CodeGen::IrOp", ptr %46, i32 0, i32 0
  %160 = load i32, ptr %159, align 4
  %161 = getelementptr inbounds nuw %"struct.Luau::CodeGen::IrOp", ptr %47, i32 0, i32 0
  %162 = load i32, ptr %161, align 4
  %163 = call i32 @_ZN4Luau7CodeGen9IrBuilder4instENS0_5IrCmdENS0_4IrOpES3_(ptr noundef nonnull align 8 dereferenceable(752) %150, i8 noundef zeroext 12, i32 %160, i32 %162)
  %164 = getelementptr inbounds nuw %"struct.Luau::CodeGen::IrOp", ptr %48, i32 0, i32 0
  store i32 %163, ptr %164, align 4
  br label %165

165:                                              ; preds = %149, %60
  %166 = getelementptr inbounds nuw %"struct.Luau::CodeGen::BuiltinImplResult", ptr %10, i32 0, i32 0
  store i32 1, ptr %166, align 4, !tbaa !24
  %167 = getelementptr inbounds nuw %"struct.Luau::CodeGen::BuiltinImplResult", ptr %10, i32 0, i32 1
  store i32 1, ptr %167, align 4, !tbaa !27
  call void @llvm.lifetime.end.p0(i64 4, ptr %40) #11
  call void @llvm.lifetime.end.p0(i64 4, ptr %37) #11
  call void @llvm.lifetime.end.p0(i64 4, ptr %35) #11
  call void @llvm.lifetime.end.p0(i64 4, ptr %26) #11
  call void @llvm.lifetime.end.p0(i64 4, ptr %24) #11
  call void @llvm.lifetime.end.p0(i64 4, ptr %20) #11
  br label %168

168:                                              ; preds = %165, %57
  %169 = load i64, ptr %10, align 4
  ret i64 %169
}