; Function Attrs: mustprogress uwtable
define internal fastcc range(i64 -4294967296, 4294967298) i64 @_ZN4Luau7CodeGenL25translateBuiltinMathClampERNS0_9IrBuilderEiiiNS0_4IrOpES3_iS3_i(ptr noundef nonnull align 8 dereferenceable(752) %0, i32 noundef range(i32 0, -1) %1, i32 noundef %2, i32 noundef %3, i32 %4, i32 %5, i32 noundef %6, i32 %7, i32 noundef %8) unnamed_addr #0 {
  %10 = icmp slt i32 %1, 3
  %11 = icmp sgt i32 %6, 1
  %or.cond = or i1 %10, %11
  br i1 %or.cond, label %48, label %12

12:                                               ; preds = %9
  %13 = tail call i32 @_ZN4Luau7CodeGen9IrBuilder5blockENS0_11IrBlockKindE(ptr noundef nonnull align 8 dereferenceable(752) %0, i8 noundef zeroext 2)
  %14 = trunc i32 %3 to i8
  %15 = tail call i32 @_ZN4Luau7CodeGen9IrBuilder5vmRegEh(ptr noundef nonnull align 8 dereferenceable(752) %0, i8 noundef zeroext %14)
  %16 = and i32 %15, 15
  %17 = icmp eq i32 %16, 2
  br i1 %17, label %_ZN4Luau7CodeGenL18builtinCheckDoubleERNS0_9IrBuilderENS0_4IrOpEi.exit, label %18

18:                                               ; preds = %12
  %19 = tail call i32 @_ZN4Luau7CodeGen9IrBuilder6vmExitEj(ptr noundef nonnull align 8 dereferenceable(752) %0, i32 noundef %8)
  tail call void @_ZN4Luau7CodeGen9IrBuilder15loadAndCheckTagENS0_4IrOpEhS2_(ptr noundef nonnull align 8 dereferenceable(752) %0, i32 %15, i8 noundef zeroext 3, i32 %19)
  br label %_ZN4Luau7CodeGenL18builtinCheckDoubleERNS0_9IrBuilderENS0_4IrOpEi.exit

_ZN4Luau7CodeGenL18builtinCheckDoubleERNS0_9IrBuilderENS0_4IrOpEi.exit: ; preds = %12, %18
  %20 = and i32 %4, 15
  %21 = icmp eq i32 %20, 2
  br i1 %21, label %_ZN4Luau7CodeGenL18builtinCheckDoubleERNS0_9IrBuilderENS0_4IrOpEi.exit67, label %22

22:                                               ; preds = %_ZN4Luau7CodeGenL18builtinCheckDoubleERNS0_9IrBuilderENS0_4IrOpEi.exit
  %23 = tail call i32 @_ZN4Luau7CodeGen9IrBuilder6vmExitEj(ptr noundef nonnull align 8 dereferenceable(752) %0, i32 noundef %8)
  tail call void @_ZN4Luau7CodeGen9IrBuilder15loadAndCheckTagENS0_4IrOpEhS2_(ptr noundef nonnull align 8 dereferenceable(752) %0, i32 %4, i8 noundef zeroext 3, i32 %23)
  br label %_ZN4Luau7CodeGenL18builtinCheckDoubleERNS0_9IrBuilderENS0_4IrOpEi.exit67

_ZN4Luau7CodeGenL18builtinCheckDoubleERNS0_9IrBuilderENS0_4IrOpEi.exit67: ; preds = %_ZN4Luau7CodeGenL18builtinCheckDoubleERNS0_9IrBuilderENS0_4IrOpEi.exit, %22
  %24 = and i32 %5, 15
  %25 = icmp eq i32 %24, 2
  br i1 %25, label %_ZN4Luau7CodeGenL18builtinCheckDoubleERNS0_9IrBuilderENS0_4IrOpEi.exit68, label %26

26:                                               ; preds = %_ZN4Luau7CodeGenL18builtinCheckDoubleERNS0_9IrBuilderENS0_4IrOpEi.exit67
  %27 = tail call i32 @_ZN4Luau7CodeGen9IrBuilder6vmExitEj(ptr noundef nonnull align 8 dereferenceable(752) %0, i32 noundef %8)
  tail call void @_ZN4Luau7CodeGen9IrBuilder15loadAndCheckTagENS0_4IrOpEhS2_(ptr noundef nonnull align 8 dereferenceable(752) %0, i32 %5, i8 noundef zeroext 3, i32 %27)
  br label %_ZN4Luau7CodeGenL18builtinCheckDoubleERNS0_9IrBuilderENS0_4IrOpEi.exit68

_ZN4Luau7CodeGenL18builtinCheckDoubleERNS0_9IrBuilderENS0_4IrOpEi.exit68: ; preds = %_ZN4Luau7CodeGenL18builtinCheckDoubleERNS0_9IrBuilderENS0_4IrOpEi.exit67, %26
  br i1 %21, label %_ZN4Luau7CodeGenL17builtinLoadDoubleERNS0_9IrBuilderENS0_4IrOpE.exit, label %28

28:                                               ; preds = %_ZN4Luau7CodeGenL18builtinCheckDoubleERNS0_9IrBuilderENS0_4IrOpEi.exit68
  %29 = tail call i32 @_ZN4Luau7CodeGen9IrBuilder4instENS0_5IrCmdENS0_4IrOpE(ptr noundef nonnull align 8 dereferenceable(752) %0, i8 noundef zeroext 3, i32 %4)
  br label %_ZN4Luau7CodeGenL17builtinLoadDoubleERNS0_9IrBuilderENS0_4IrOpE.exit

_ZN4Luau7CodeGenL17builtinLoadDoubleERNS0_9IrBuilderENS0_4IrOpE.exit: ; preds = %_ZN4Luau7CodeGenL18builtinCheckDoubleERNS0_9IrBuilderENS0_4IrOpEi.exit68, %28
  %.sroa.03.0.i = phi i32 [ %29, %28 ], [ %4, %_ZN4Luau7CodeGenL18builtinCheckDoubleERNS0_9IrBuilderENS0_4IrOpEi.exit68 ]
  br i1 %25, label %_ZN4Luau7CodeGenL17builtinLoadDoubleERNS0_9IrBuilderENS0_4IrOpE.exit70, label %30

30:                                               ; preds = %_ZN4Luau7CodeGenL17builtinLoadDoubleERNS0_9IrBuilderENS0_4IrOpE.exit
  %31 = tail call i32 @_ZN4Luau7CodeGen9IrBuilder4instENS0_5IrCmdENS0_4IrOpE(ptr noundef nonnull align 8 dereferenceable(752) %0, i8 noundef zeroext 3, i32 %5)
  br label %_ZN4Luau7CodeGenL17builtinLoadDoubleERNS0_9IrBuilderENS0_4IrOpE.exit70

_ZN4Luau7CodeGenL17builtinLoadDoubleERNS0_9IrBuilderENS0_4IrOpE.exit70: ; preds = %_ZN4Luau7CodeGenL17builtinLoadDoubleERNS0_9IrBuilderENS0_4IrOpE.exit, %30
  %.sroa.03.0.i69 = phi i32 [ %31, %30 ], [ %5, %_ZN4Luau7CodeGenL17builtinLoadDoubleERNS0_9IrBuilderENS0_4IrOpE.exit ]
  %32 = tail call i32 @_ZN4Luau7CodeGen9IrBuilder4condENS0_11IrConditionE(ptr noundef nonnull align 8 dereferenceable(752) %0, i8 noundef zeroext 5)
  %33 = tail call i32 @_ZN4Luau7CodeGen9IrBuilder4instENS0_5IrCmdENS0_4IrOpES3_S3_S3_S3_(ptr noundef nonnull align 8 dereferenceable(752) %0, i8 noundef zeroext 52, i32 %.sroa.03.0.i, i32 %.sroa.03.0.i69, i32 %32, i32 %7, i32 %13)
  tail call void @_ZN4Luau7CodeGen9IrBuilder10beginBlockENS0_4IrOpE(ptr noundef nonnull align 8 dereferenceable(752) %0, i32 %13)
  %34 = tail call i32 @_ZN4Luau7CodeGen9IrBuilder5vmRegEh(ptr noundef nonnull align 8 dereferenceable(752) %0, i8 noundef zeroext %14)
  %35 = and i32 %34, 15
  %36 = icmp eq i32 %35, 2
  br i1 %36, label %_ZN4Luau7CodeGenL17builtinLoadDoubleERNS0_9IrBuilderENS0_4IrOpE.exit72, label %37

37:                                               ; preds = %_ZN4Luau7CodeGenL17builtinLoadDoubleERNS0_9IrBuilderENS0_4IrOpE.exit70
  %38 = tail call i32 @_ZN4Luau7CodeGen9IrBuilder4instENS0_5IrCmdENS0_4IrOpE(ptr noundef nonnull align 8 dereferenceable(752) %0, i8 noundef zeroext 3, i32 %34)
  br label %_ZN4Luau7CodeGenL17builtinLoadDoubleERNS0_9IrBuilderENS0_4IrOpE.exit72

_ZN4Luau7CodeGenL17builtinLoadDoubleERNS0_9IrBuilderENS0_4IrOpE.exit72: ; preds = %_ZN4Luau7CodeGenL17builtinLoadDoubleERNS0_9IrBuilderENS0_4IrOpE.exit70, %37
  %.sroa.03.0.i71 = phi i32 [ %38, %37 ], [ %34, %_ZN4Luau7CodeGenL17builtinLoadDoubleERNS0_9IrBuilderENS0_4IrOpE.exit70 ]
  %39 = tail call i32 @_ZN4Luau7CodeGen9IrBuilder4instENS0_5IrCmdENS0_4IrOpES3_(ptr noundef nonnull align 8 dereferenceable(752) %0, i8 noundef zeroext 29, i32 %.sroa.03.0.i, i32 %.sroa.03.0.i71)
  %40 = tail call i32 @_ZN4Luau7CodeGen9IrBuilder4instENS0_5IrCmdENS0_4IrOpES3_(ptr noundef nonnull align 8 dereferenceable(752) %0, i8 noundef zeroext 28, i32 %.sroa.03.0.i69, i32 %39)
  %41 = trunc i32 %2 to i8
  %42 = tail call i32 @_ZN4Luau7CodeGen9IrBuilder5vmRegEh(ptr noundef nonnull align 8 dereferenceable(752) %0, i8 noundef zeroext %41)
  %43 = tail call i32 @_ZN4Luau7CodeGen9IrBuilder4instENS0_5IrCmdENS0_4IrOpES3_(ptr noundef nonnull align 8 dereferenceable(752) %0, i8 noundef zeroext 15, i32 %42, i32 %40)
  %.not = icmp eq i32 %2, %3
  br i1 %.not, label %48, label %44

44:                                               ; preds = %_ZN4Luau7CodeGenL17builtinLoadDoubleERNS0_9IrBuilderENS0_4IrOpE.exit72
  %45 = tail call i32 @_ZN4Luau7CodeGen9IrBuilder5vmRegEh(ptr noundef nonnull align 8 dereferenceable(752) %0, i8 noundef zeroext %41)
  %46 = tail call i32 @_ZN4Luau7CodeGen9IrBuilder8constTagEh(ptr noundef nonnull align 8 dereferenceable(752) %0, i8 noundef zeroext 3)
  %47 = tail call i32 @_ZN4Luau7CodeGen9IrBuilder4instENS0_5IrCmdENS0_4IrOpES3_(ptr noundef nonnull align 8 dereferenceable(752) %0, i8 noundef zeroext 12, i32 %45, i32 %46)
  br label %48

48:                                               ; preds = %_ZN4Luau7CodeGenL17builtinLoadDoubleERNS0_9IrBuilderENS0_4IrOpE.exit72, %44, %9
  %.sroa.066.0.insert.insert = phi i64 [ -4294967296, %9 ], [ 4294967297, %44 ], [ 4294967297, %_ZN4Luau7CodeGenL17builtinLoadDoubleERNS0_9IrBuilderENS0_4IrOpE.exit72 ]
  ret i64 %.sroa.066.0.insert.insert
}